target datalayout = "e-m:e-p270:32:32-p271:32:32-p272:64:64-i64:64-i128:128-f80:128-n8:16:32:64-S128"
target triple = "x86_64-pc-linux-gnu"

%struct._CvImageWidget = type { %struct._GtkWidget, ptr, ptr, i32 }
%struct._GtkWidget = type { %struct._GObject, ptr }
%struct._GObject = type { %struct._GTypeInstance, i32, ptr }
%struct._GTypeInstance = type { ptr }
%struct._GTypeClass = type { i64 }
%struct.CvMat = type { i32, i32, ptr, i32, %union.anon.18, %union.anon.19, %union.anon.20 }
%union.anon.18 = type { ptr }
%union.anon.19 = type { i32 }
%union.anon.20 = type { i32 }

@_ZZ22cvImageWidget_get_typevE10image_type = internal global i64 0, align 8
@.str.2 = private unnamed_addr constant [14 x i8] c"CvImageWidget\00", align 1
@.str.20 = private unnamed_addr constant [15 x i8] c"widget != NULL\00", align 1
@.str.21 = private unnamed_addr constant [28 x i8] c"CV_IS_IMAGE_WIDGET (widget)\00", align 1
@__PRETTY_FUNCTION__._ZL34cvImageWidget_get_preferred_heightP10_GtkWidgetPiS1_ = private unnamed_addr constant [69 x i8] c"void cvImageWidget_get_preferred_height(GtkWidget *, gint *, gint *)\00", align 1

; Function Attrs: mustprogress uwtable
define hidden noundef i64 @_Z22cvImageWidget_get_typev() #4 {
  %1 = load i64, ptr @_ZZ22cvImageWidget_get_typevE10image_type, align 8, !tbaa !21
  %2 = icmp ne i64 %1, 0
  br i1 %2, label %6, label %3

3:                                                ; preds = %0
  %4 = call i64 @gtk_widget_get_type() #28
  %5 = call i64 @g_type_register_static_simple(i64 noundef %4, ptr noundef @.str.2, i32 noundef 824, ptr noundef @_ZL24cvImageWidget_class_initPvS_, i32 noundef 56, ptr noundef @_ZL18cvImageWidget_initP14_GTypeInstancePv, i32 noundef 0)
  store i64 %5, ptr @_ZZ22cvImageWidget_get_typevE10image_type, align 8, !tbaa !21
  br label %6

6:                                                ; preds = %3, %0
  %7 = load i64, ptr @_ZZ22cvImageWidget_get_typevE10image_type, align 8, !tbaa !21
  ret i64 %7
}

; Function Attrs: mustprogress uwtable
define internal void @_ZL34cvImageWidget_get_preferred_heightP10_GtkWidgetPiS1_(ptr noundef %0, ptr noundef %1, ptr noundef %2) #4 {
  %4 = alloca ptr, align 8
  %5 = alloca ptr, align 8
  %6 = alloca ptr, align 8
  %7 = alloca i32, align 4
  %8 = alloca i32, align 4
  %9 = alloca i32, align 4
  %10 = alloca ptr, align 8
  %11 = alloca i64, align 8
  %12 = alloca i32, align 4
  %13 = alloca i32, align 4
  %14 = alloca i32, align 4
  %15 = alloca ptr, align 8
  store ptr %0, ptr %4, align 8, !tbaa !158
  store ptr %1, ptr %5, align 8, !tbaa !152
  store ptr %2, ptr %6, align 8, !tbaa !152
  br label %16

16:                                               ; preds = %3
  call void @llvm.lifetime.start.p0(i64 4, ptr %7) #3
  %17 = load ptr, ptr %4, align 8, !tbaa !158
  %18 = icmp ne ptr %17, null
  br i1 %18, label %19, label %20

19:                                               ; preds = %16
  store i32 1, ptr %7, align 4, !tbaa !3
  br label %21

20:                                               ; preds = %16
  store i32 0, ptr %7, align 4, !tbaa !3
  br label %21

21:                                               ; preds = %20, %19
  %22 = load i32, ptr %7, align 4, !tbaa !3
  store i32 %22, ptr %8, align 4, !tbaa !3
  call void @llvm.lifetime.end.p0(i64 4, ptr %7) #3
  %23 = load i32, ptr %8, align 4, !tbaa !3
  %24 = sext i32 %23 to i64
  %25 = call i64 @llvm.expect.i64(i64 %24, i64 1)
  %26 = icmp ne i64 %25, 0
  br i1 %26, label %27, label %28

27:                                               ; preds = %21
  br label %29

28:                                               ; preds = %21
  call void @g_return_if_fail_warning(ptr noundef null, ptr noundef @__PRETTY_FUNCTION__._ZL34cvImageWidget_get_preferred_heightP10_GtkWidgetPiS1_, ptr noundef @.str.20)
  br label %131

29:                                               ; preds = %27
  br label %30

30:                                               ; preds = %29
  br label %31

31:                                               ; preds = %30
  call void @llvm.lifetime.start.p0(i64 4, ptr %9) #3
  call void @llvm.lifetime.start.p0(i64 8, ptr %10) #3
  %32 = load ptr, ptr %4, align 8, !tbaa !158
  store ptr %32, ptr %10, align 8, !tbaa !49
  call void @llvm.lifetime.start.p0(i64 8, ptr %11) #3
  %33 = call noundef i64 @_Z22cvImageWidget_get_typev()
  store i64 %33, ptr %11, align 8, !tbaa !21
  call void @llvm.lifetime.start.p0(i64 4, ptr %12) #3
  %34 = load ptr, ptr %10, align 8, !tbaa !49
  %35 = icmp ne ptr %34, null
  br i1 %35, label %37, label %36

36:                                               ; preds = %31
  store i32 0, ptr %12, align 4, !tbaa !3
  br label %56

37:                                               ; preds = %31
  %38 = load ptr, ptr %10, align 8, !tbaa !49
  %39 = getelementptr inbounds nuw %struct._GTypeInstance, ptr %38, i32 0, i32 0
  %40 = load ptr, ptr %39, align 8, !tbaa !183
  %41 = icmp ne ptr %40, null
  br i1 %41, label %42, label %51

42:                                               ; preds = %37
  %43 = load ptr, ptr %10, align 8, !tbaa !49
  %44 = getelementptr inbounds nuw %struct._GTypeInstance, ptr %43, i32 0, i32 0
  %45 = load ptr, ptr %44, align 8, !tbaa !183
  %46 = getelementptr inbounds nuw %struct._GTypeClass, ptr %45, i32 0, i32 0
  %47 = load i64, ptr %46, align 8, !tbaa !184
  %48 = load i64, ptr %11, align 8, !tbaa !21
  %49 = icmp eq i64 %47, %48
  br i1 %49, label %50, label %51

50:                                               ; preds = %42
  store i32 1, ptr %12, align 4, !tbaa !3
  br label %55

51:                                               ; preds = %42, %37
  %52 = load ptr, ptr %10, align 8, !tbaa !49
  %53 = load i64, ptr %11, align 8, !tbaa !21
  %54 = call i32 @g_type_check_instance_is_a(ptr noundef %52, i64 noundef %53) #30
  store i32 %54, ptr %12, align 4, !tbaa !3
  br label %55

55:                                               ; preds = %51, %50
  br label %56

56:                                               ; preds = %55, %36
  %57 = load i32, ptr %12, align 4, !tbaa !3
  store i32 %57, ptr %13, align 4, !tbaa !3
  call void @llvm.lifetime.end.p0(i64 4, ptr %12) #3
  call void @llvm.lifetime.end.p0(i64 8, ptr %11) #3
  call void @llvm.lifetime.end.p0(i64 8, ptr %10) #3
  %58 = load i32, ptr %13, align 4, !tbaa !3
  %59 = icmp ne i32 %58, 0
  br i1 %59, label %60, label %61

60:                                               ; preds = %56
  store i32 1, ptr %9, align 4, !tbaa !3
  br label %62

61:                                               ; preds = %56
  store i32 0, ptr %9, align 4, !tbaa !3
  br label %62

62:                                               ; preds = %61, %60
  %63 = load i32, ptr %9, align 4, !tbaa !3
  store i32 %63, ptr %14, align 4, !tbaa !3
  call void @llvm.lifetime.end.p0(i64 4, ptr %9) #3
  %64 = load i32, ptr %14, align 4, !tbaa !3
  %65 = sext i32 %64 to i64
  %66 = call i64 @llvm.expect.i64(i64 %65, i64 1)
  %67 = icmp ne i64 %66, 0
  br i1 %67, label %68, label %69

68:                                               ; preds = %62
  br label %70

69:                                               ; preds = %62
  call void @g_return_if_fail_warning(ptr noundef null, ptr noundef @__PRETTY_FUNCTION__._ZL34cvImageWidget_get_preferred_heightP10_GtkWidgetPiS1_, ptr noundef @.str.21)
  br label %131

70:                                               ; preds = %68
  br label %71

71:                                               ; preds = %70
  call void @llvm.lifetime.start.p0(i64 8, ptr %15) #3
  %72 = load ptr, ptr %4, align 8, !tbaa !158
  %73 = call noundef i64 @_Z22cvImageWidget_get_typev()
  %74 = call ptr @g_type_check_instance_cast(ptr noundef %72, i64 noundef %73)
  store ptr %74, ptr %15, align 8, !tbaa !7
  %75 = load ptr, ptr %15, align 8, !tbaa !7
  %76 = getelementptr inbounds nuw %struct._CvImageWidget, ptr %75, i32 0, i32 1
  %77 = load ptr, ptr %76, align 8, !tbaa !10
  %78 = icmp ne ptr %77, null
  br i1 %78, label %79, label %98

79:                                               ; preds = %71
  %80 = load ptr, ptr %15, align 8, !tbaa !7
  %81 = getelementptr inbounds nuw %struct._CvImageWidget, ptr %80, i32 0, i32 3
  %82 = load i32, ptr %81, align 8, !tbaa !20
  %83 = and i32 %82, 1
  %84 = icmp ne i32 %83, 1
  br i1 %84, label %85, label %89

85:                                               ; preds = %79
  %86 = load ptr, ptr %4, align 8, !tbaa !158
  %87 = call ptr @gtk_widget_get_window(ptr noundef %86)
  %88 = call i32 @gdk_window_get_height(ptr noundef %87)
  br label %95

89:                                               ; preds = %79
  %90 = load ptr, ptr %15, align 8, !tbaa !7
  %91 = getelementptr inbounds nuw %struct._CvImageWidget, ptr %90, i32 0, i32 1
  %92 = load ptr, ptr %91, align 8, !tbaa !10
  %93 = getelementptr inbounds nuw %struct.CvMat, ptr %92, i32 0, i32 5
  %94 = load i32, ptr %93, align 8, !tbaa !99
  br label %95

95:                                               ; preds = %89, %85
  %96 = phi i32 [ %88, %85 ], [ %94, %89 ]
  %97 = load ptr, ptr %5, align 8, !tbaa !152
  store i32 %96, ptr %97, align 4, !tbaa !3
  br label %100

98:                                               ; preds = %71
  %99 = load ptr, ptr %5, align 8, !tbaa !152
  store i32 240, ptr %99, align 4, !tbaa !3
  br label %100

100:                                              ; preds = %98, %95
  %101 = load ptr, ptr %15, align 8, !tbaa !7
  %102 = getelementptr inbounds nuw %struct._CvImageWidget, ptr %101, i32 0, i32 2
  %103 = load ptr, ptr %102, align 8, !tbaa !19
  %104 = icmp ne ptr %103, null
  br i1 %104, label %105, label %126

105:                                              ; preds = %100
  %106 = load ptr, ptr %5, align 8, !tbaa !152
  %107 = load i32, ptr %106, align 4, !tbaa !3
  %108 = load ptr, ptr %15, align 8, !tbaa !7
  %109 = getelementptr inbounds nuw %struct._CvImageWidget, ptr %108, i32 0, i32 2
  %110 = load ptr, ptr %109, align 8, !tbaa !19
  %111 = getelementptr inbounds nuw %struct.CvMat, ptr %110, i32 0, i32 5
  %112 = load i32, ptr %111, align 8, !tbaa !99
  %113 = icmp slt i32 %107, %112
  br i1 %113, label %114, label %120

114:                                              ; preds = %105
  %115 = load ptr, ptr %15, align 8, !tbaa !7
  %116 = getelementptr inbounds nuw %struct._CvImageWidget, ptr %115, i32 0, i32 2
  %117 = load ptr, ptr %116, align 8, !tbaa !19
  %118 = getelementptr inbounds nuw %struct.CvMat, ptr %117, i32 0, i32 5
  %119 = load i32, ptr %118, align 8, !tbaa !99
  br label %123

120:                                              ; preds = %105
  %121 = load ptr, ptr %5, align 8, !tbaa !152
  %122 = load i32, ptr %121, align 4, !tbaa !3
  br label %123

123:                                              ; preds = %120, %114
  %124 = phi i32 [ %119, %114 ], [ %122, %120 ]
  %125 = load ptr, ptr %6, align 8, !tbaa !152
  store i32 %124, ptr %125, align 4, !tbaa !3
  br label %130

126:                                              ; preds = %100
  %127 = load ptr, ptr %5, align 8, !tbaa !152
  %128 = load i32, ptr %127, align 4, !tbaa !3
  %129 = load ptr, ptr %6, align 8, !tbaa !152
  store i32 %128, ptr %129, align 4, !tbaa !3
  br label %130

130:                                              ; preds = %126, %123
  call void @llvm.lifetime.end.p0(i64 8, ptr %15) #3
  br label %131

131:                                              ; preds = %130, %69, %28
  ret void
}